target datalayout = "e-m:e-p270:32:32-p271:32:32-p272:64:64-i64:64-i128:128-f80:128-n8:16:32:64-S128"
target triple = "x86_64-pc-linux-gnu"

%struct.ident_t = type { i32, i32, i32, i32, ptr }
%struct.Qureg = type { i32, i32, i32, i64, i64, i32, i32, %struct.ComplexArray, %struct.ComplexArray, %struct.ComplexArray, ptr, ptr, ptr, ptr, ptr, ptr }
%struct.ComplexArray = type { ptr, ptr }

@3 = private unnamed_addr constant %struct.ident_t { i32 0, i32 2, i32 0, i32 22, ptr @0 }, align 8

; Function Attrs: nounwind uwtable
define void @statevec_pauliYDistributed(ptr noundef byval(%struct.Qureg) align 8 %0, ptr %1, ptr %2, ptr %3, ptr %4, i32 noundef %5, i32 noundef %6) #0 {
  %8 = alloca %struct.ComplexArray, align 8
  %9 = alloca %struct.ComplexArray, align 8
  %10 = alloca i32, align 4
  %11 = alloca i32, align 4
  %12 = alloca i64, align 8
  %13 = alloca ptr, align 8
  %14 = alloca ptr, align 8
  %15 = alloca ptr, align 8
  %16 = alloca ptr, align 8
  %17 = alloca i32, align 4
  %18 = alloca i32, align 4
  %19 = getelementptr inbounds nuw { ptr, ptr }, ptr %8, i32 0, i32 0
  store ptr %1, ptr %19, align 8
  %20 = getelementptr inbounds nuw { ptr, ptr }, ptr %8, i32 0, i32 1
  store ptr %2, ptr %20, align 8
  %21 = getelementptr inbounds nuw { ptr, ptr }, ptr %9, i32 0, i32 0
  store ptr %3, ptr %21, align 8
  %22 = getelementptr inbounds nuw { ptr, ptr }, ptr %9, i32 0, i32 1
  store ptr %4, ptr %22, align 8
  store i32 %5, ptr %10, align 4, !tbaa !8
  store i32 %6, ptr %11, align 4, !tbaa !8
  call void @llvm.lifetime.start.p0(i64 8, ptr %12) #3
  %23 = getelementptr inbounds nuw %struct.Qureg, ptr %0, i32 0, i32 3
  %24 = load i64, ptr %23, align 8, !tbaa !12
  store i64 %24, ptr %12, align 8, !tbaa !4
  call void @llvm.lifetime.start.p0(i64 8, ptr %13) #3
  %25 = getelementptr inbounds nuw %struct.ComplexArray, ptr %8, i32 0, i32 0
  %26 = load ptr, ptr %25, align 8, !tbaa !78
  store ptr %26, ptr %13, align 8, !tbaa !25
  call void @llvm.lifetime.start.p0(i64 8, ptr %14) #3
  %27 = getelementptr inbounds nuw %struct.ComplexArray, ptr %8, i32 0, i32 1
  %28 = load ptr, ptr %27, align 8, !tbaa !79
  store ptr %28, ptr %14, align 8, !tbaa !25
  call void @llvm.lifetime.start.p0(i64 8, ptr %15) #3
  %29 = getelementptr inbounds nuw %struct.ComplexArray, ptr %9, i32 0, i32 0
  %30 = load ptr, ptr %29, align 8, !tbaa !78
  store ptr %30, ptr %15, align 8, !tbaa !25
  call void @llvm.lifetime.start.p0(i64 8, ptr %16) #3
  %31 = getelementptr inbounds nuw %struct.ComplexArray, ptr %9, i32 0, i32 1
  %32 = load ptr, ptr %31, align 8, !tbaa !79
  store ptr %32, ptr %16, align 8, !tbaa !25
  call void @llvm.lifetime.start.p0(i64 4, ptr %17) #3
  store i32 1, ptr %17, align 4, !tbaa !8
  call void @llvm.lifetime.start.p0(i64 4, ptr %18) #3
  store i32 1, ptr %18, align 4, !tbaa !8
  %33 = load i32, ptr %10, align 4, !tbaa !8
  %34 = icmp ne i32 %33, 0
  br i1 %34, label %35, label %36

35:                                               ; preds = %7
  store i32 -1, ptr %18, align 4, !tbaa !8
  br label %37

36:                                               ; preds = %7
  store i32 -1, ptr %17, align 4, !tbaa !8
  br label %37

37:                                               ; preds = %36, %35
  call void (ptr, i32, ptr, ...) @__kmpc_fork_call(ptr @3, i32 8, ptr @statevec_pauliYDistributed.omp_outlined, ptr %12, ptr %15, ptr %11, ptr %17, ptr %14, ptr %16, ptr %18, ptr %13)
  call void @llvm.lifetime.end.p0(i64 4, ptr %18) #3
  call void @llvm.lifetime.end.p0(i64 4, ptr %17) #3
  call void @llvm.lifetime.end.p0(i64 8, ptr %16) #3
  call void @llvm.lifetime.end.p0(i64 8, ptr %15) #3
  call void @llvm.lifetime.end.p0(i64 8, ptr %14) #3
  call void @llvm.lifetime.end.p0(i64 8, ptr %13) #3
  call void @llvm.lifetime.end.p0(i64 8, ptr %12) #3
  ret void
}