; Function Attrs: nounwind uwtable
define void @statevec_pauliYDistributed(ptr noundef readonly byval(%struct.Qureg) align 8 captures(none) %0, ptr %1, ptr %2, ptr %3, ptr %4, i32 noundef %5, i32 noundef %6) local_unnamed_addr #1 {
  %8 = alloca i32, align 4
  %9 = alloca i64, align 8
  %10 = alloca ptr, align 8
  %11 = alloca ptr, align 8
  %12 = alloca ptr, align 8
  %13 = alloca ptr, align 8
  %14 = alloca i32, align 4
  %15 = alloca i32, align 4
  store i32 %6, ptr %8, align 4, !tbaa !18
  call void @llvm.lifetime.start.p0(i64 8, ptr nonnull %9) #4
  %16 = getelementptr inbounds nuw i8, ptr %0, i64 16
  %17 = load i64, ptr %16, align 8, !tbaa !8
  store i64 %17, ptr %9, align 8, !tbaa !16
  call void @llvm.lifetime.start.p0(i64 8, ptr nonnull %10) #4
  store ptr %1, ptr %10, align 8, !tbaa !26
  call void @llvm.lifetime.start.p0(i64 8, ptr nonnull %11) #4
  store ptr %2, ptr %11, align 8, !tbaa !26
  call void @llvm.lifetime.start.p0(i64 8, ptr nonnull %12) #4
  store ptr %3, ptr %12, align 8, !tbaa !26
  call void @llvm.lifetime.start.p0(i64 8, ptr nonnull %13) #4
  store ptr %4, ptr %13, align 8, !tbaa !26
  call void @llvm.lifetime.start.p0(i64 4, ptr nonnull %14) #4
  store i32 1, ptr %14, align 4, !tbaa !18
  call void @llvm.lifetime.start.p0(i64 4, ptr nonnull %15) #4
  store i32 1, ptr %15, align 4, !tbaa !18
  %.not = icmp eq i32 %5, 0
  %. = select i1 %.not, ptr %14, ptr %15
  store i32 -1, ptr %., align 4, !tbaa !18
  call void (ptr, i32, ptr, ...) @__kmpc_fork_call(ptr nonnull @3, i32 8, ptr nonnull @statevec_pauliYDistributed.omp_outlined, ptr nonnull %9, ptr nonnull %12, ptr nonnull %8, ptr nonnull %14, ptr nonnull %11, ptr nonnull %13, ptr nonnull %15, ptr nonnull %10)
  call void @llvm.lifetime.end.p0(i64 4, ptr nonnull %15) #4
  call void @llvm.lifetime.end.p0(i64 4, ptr nonnull %14) #4
  call void @llvm.lifetime.end.p0(i64 8, ptr nonnull %13) #4
  call void @llvm.lifetime.end.p0(i64 8, ptr nonnull %12) #4
  call void @llvm.lifetime.end.p0(i64 8, ptr nonnull %11) #4
  call void @llvm.lifetime.end.p0(i64 8, ptr nonnull %10) #4
  call void @llvm.lifetime.end.p0(i64 8, ptr nonnull %9) #4
  ret void
}